; Function Attrs: nounwind uwtable
define ptr @l___private_Init_Data_Array_GetLit_0__Array_toListLitAux_match__1_splitter___rarg(ptr noundef %0, ptr readnone captures(none) %1, ptr noundef %2, ptr noundef %3, ptr noundef %4) local_unnamed_addr #0 {
  %6 = ptrtoint ptr %0 to i64
  %7 = and i64 %6, 1
  %.not = icmp eq i64 %7, 0
  br i1 %.not, label %lean_nat_eq.exit, label %8, !prof !14

8:                                                ; preds = %5
  %9 = icmp eq ptr %0, inttoptr (i64 1 to ptr)
  br i1 %9, label %28, label %11

lean_nat_eq.exit:                                 ; preds = %5
  %10 = tail call zeroext i1 @lean_nat_big_eq(ptr noundef %0, ptr noundef nonnull inttoptr (i64 1 to ptr)) #3
  br i1 %10, label %28, label %11

11:                                               ; preds = %8, %lean_nat_eq.exit
  %12 = ptrtoint ptr %3 to i64
  %13 = and i64 %12, 1
  %.not19 = icmp eq i64 %13, 0
  br i1 %.not19, label %14, label %lean_dec.exit14

14:                                               ; preds = %11
  %15 = load i32, ptr %3, align 4, !tbaa !8
  %16 = icmp sgt i32 %15, 1
  br i1 %16, label %17, label %19, !prof !11

17:                                               ; preds = %14
  %18 = add nsw i32 %15, -1
  store i32 %18, ptr %3, align 4, !tbaa !8
  br label %lean_dec.exit14

19:                                               ; preds = %14
  %.not.i = icmp eq i32 %15, 0
  br i1 %.not.i, label %lean_dec.exit14, label %20

20:                                               ; preds = %19
  tail call void @lean_dec_ref_cold(ptr noundef nonnull %3) #3
  br label %lean_dec.exit14

lean_dec.exit14:                                  ; preds = %20, %19, %17, %11
  br i1 %.not, label %.critedge.i, label %21, !prof !14

21:                                               ; preds = %lean_dec.exit14
  %22 = icmp ult ptr %0, inttoptr (i64 2 to ptr)
  br i1 %22, label %lean_nat_sub.exit, label %23

23:                                               ; preds = %21
  %24 = add i64 %6, -2
  %25 = inttoptr i64 %24 to ptr
  br label %lean_nat_sub.exit

.critedge.i:                                      ; preds = %lean_dec.exit14
  %26 = tail call ptr @lean_nat_big_sub(ptr noundef %0, ptr noundef nonnull inttoptr (i64 3 to ptr)) #3
  br label %lean_nat_sub.exit

lean_nat_sub.exit:                                ; preds = %21, %23, %.critedge.i
  %.1.i = phi ptr [ %26, %.critedge.i ], [ %25, %23 ], [ inttoptr (i64 1 to ptr), %21 ]
  %27 = tail call ptr @lean_apply_3(ptr noundef %4, ptr noundef %.1.i, ptr noundef nonnull inttoptr (i64 1 to ptr), ptr noundef %2) #3
  br label %39

28:                                               ; preds = %8, %lean_nat_eq.exit
  %29 = ptrtoint ptr %4 to i64
  %30 = and i64 %29, 1
  %.not18 = icmp eq i64 %30, 0
  br i1 %.not18, label %31, label %lean_dec.exit

31:                                               ; preds = %28
  %32 = load i32, ptr %4, align 4, !tbaa !8
  %33 = icmp sgt i32 %32, 1
  br i1 %33, label %34, label %36, !prof !11

34:                                               ; preds = %31
  %35 = add nsw i32 %32, -1
  store i32 %35, ptr %4, align 4, !tbaa !8
  br label %lean_dec.exit

36:                                               ; preds = %31
  %.not.i15 = icmp eq i32 %32, 0
  br i1 %.not.i15, label %lean_dec.exit, label %37

37:                                               ; preds = %36
  tail call void @lean_dec_ref_cold(ptr noundef nonnull %4) #3
  br label %lean_dec.exit

lean_dec.exit:                                    ; preds = %37, %36, %34, %28
  %38 = tail call ptr @lean_apply_2(ptr noundef %3, ptr noundef nonnull inttoptr (i64 1 to ptr), ptr noundef %2) #3
  br label %39

39:                                               ; preds = %lean_dec.exit, %lean_nat_sub.exit
  %.0 = phi ptr [ %27, %lean_nat_sub.exit ], [ %38, %lean_dec.exit ]
  ret ptr %.0
}